target datalayout = "e-m:e-p270:32:32-p271:32:32-p272:64:64-i64:64-i128:128-f80:128-n8:16:32:64-S128"
target triple = "x86_64-pc-linux-gnu"

%struct.AVChannelLayout = type { i32, i32, %union.anon, ptr }
%union.anon = type { i64 }
%struct.AACPCEInfo = type { %struct.AVChannelLayout, [4 x i32], [3 x [8 x i32]], [4 x [8 x i32]], [16 x i8], [16 x i8] }
%struct.AACEncContext = type { ptr, %struct.AACEncOptions, %struct.PutBitContext, ptr, ptr, ptr, ptr, ptr, %struct.AACPCEInfo, [16 x ptr], i32, i32, [8 x i8], %struct.LPCContext, i32, i32, ptr, ptr, ptr, %struct.FFPsyContext, ptr, ptr, i32, i32, float, i32, float, i32, i32, %struct.AudioFrameQueue, [96 x i32], [1024 x float], i16, [256 x [128 x %struct.AACQuantizeBandCostCacheEntry]], %struct.AACEncDSPContext, %struct.anon.0 }
%struct.AACEncOptions = type { i32, i32, i32, i32, i32, i32 }
%struct.PutBitContext = type { i32, i32, ptr, ptr, ptr }
%struct.LPCContext = type { i32, i32, i32, ptr, ptr, ptr, ptr, [2 x %struct.LLSModel] }
%struct.LLSModel = type { [36 x [36 x double]], [32 x [32 x double]], [32 x double], i32, ptr, ptr, [8 x i8] }
%struct.FFPsyContext = type { ptr, ptr, ptr, ptr, i32, i32, ptr, ptr, i32, %struct.anon, ptr }
%struct.anon = type { i32, i32, i32 }
%struct.AudioFrameQueue = type { ptr, i32, i32, ptr, i32, i32 }
%struct.AACQuantizeBandCostCacheEntry = type { float, float, i32, i8, i8, i16 }
%struct.AACEncDSPContext = type { ptr, ptr }
%struct.anon.0 = type { ptr }
%struct.AVCodecContext = type { ptr, i32, i32, ptr, i32, i32, ptr, ptr, ptr, i64, i32, i32, ptr, i32, %struct.AVRational, %struct.AVRational, %struct.AVRational, i32, i32, i32, i32, i32, %struct.AVRational, i32, i32, i32, i32, i32, i32, i32, i32, i32, i32, i32, ptr, ptr, i32, float, float, float, float, float, float, float, float, float, i32, i32, i32, i32, i32, i32, i32, i32, i32, i32, i32, i32, ptr, ptr, ptr, i32, i32, i32, i32, i32, i32, i32, i32, i32, i32, %struct.AVChannelLayout, i32, i32, i32, i32, i32, i32, i32, i32, ptr, i32, i32, i32, float, float, i32, i32, i32, i32, i32, ptr, i64, i64, float, float, i32, i32, ptr, ptr, i32, i32, i32, i32, i32, ptr, ptr, ptr, ptr, i32, i32, [8 x i64], i32, i32, i32, i32, i32, i32, i32, ptr, ptr, i32, i32, i32, i32, i32, i32, i32, i32, i32, i32, ptr, ptr, i32, i32, ptr, ptr, ptr, ptr, i32, i32, i64, i32, i32, i64, ptr, i64, ptr, i32, ptr, i32 }
%struct.AVRational = type { i32, i32 }

@.str.53 = private unnamed_addr constant [12 x i8] c"Qavg: %.3f\0A\00", align 1

; Function Attrs: cold nounwind optsize uwtable
define internal i32 @aac_encode_end(ptr noundef %0) #2 {
  %2 = alloca ptr, align 8
  %3 = alloca ptr, align 8
  store ptr %0, ptr %2, align 8, !tbaa !41
  call void @llvm.lifetime.start.p0(i64 8, ptr %3) #11
  %4 = load ptr, ptr %2, align 8, !tbaa !41
  %5 = getelementptr inbounds nuw %struct.AVCodecContext, ptr %4, i32 0, i32 6
  %6 = load ptr, ptr %5, align 8, !tbaa !42
  store ptr %6, ptr %3, align 8, !tbaa !4
  %7 = load ptr, ptr %2, align 8, !tbaa !41
  %8 = load ptr, ptr %3, align 8, !tbaa !4
  %9 = getelementptr inbounds nuw %struct.AACEncContext, ptr %8, i32 0, i32 27
  %10 = load i32, ptr %9, align 4, !tbaa !172
  %11 = icmp ne i32 %10, 0
  br i1 %11, label %12, label %21

12:                                               ; preds = %1
  %13 = load ptr, ptr %3, align 8, !tbaa !4
  %14 = getelementptr inbounds nuw %struct.AACEncContext, ptr %13, i32 0, i32 26
  %15 = load float, ptr %14, align 16, !tbaa !171
  %16 = load ptr, ptr %3, align 8, !tbaa !4
  %17 = getelementptr inbounds nuw %struct.AACEncContext, ptr %16, i32 0, i32 27
  %18 = load i32, ptr %17, align 4, !tbaa !172
  %19 = sitofp i32 %18 to float
  %20 = fdiv nsz float %15, %19
  br label %22

21:                                               ; preds = %1
  br label %22

22:                                               ; preds = %21, %12
  %23 = phi nsz float [ %20, %12 ], [ 0x7FF8000000000000, %21 ]
  %24 = fpext nsz float %23 to double
  call void (ptr, i32, ptr, ...) @av_log(ptr noundef %7, i32 noundef 32, ptr noundef @.str.53, double noundef %24)
  %25 = load ptr, ptr %3, align 8, !tbaa !4
  %26 = getelementptr inbounds nuw %struct.AACEncContext, ptr %25, i32 0, i32 3
  call void @av_tx_uninit(ptr noundef %26)
  %27 = load ptr, ptr %3, align 8, !tbaa !4
  %28 = getelementptr inbounds nuw %struct.AACEncContext, ptr %27, i32 0, i32 5
  call void @av_tx_uninit(ptr noundef %28)
  %29 = load ptr, ptr %3, align 8, !tbaa !4
  %30 = getelementptr inbounds nuw %struct.AACEncContext, ptr %29, i32 0, i32 19
  call void @ff_psy_end(ptr noundef %30)
  %31 = load ptr, ptr %3, align 8, !tbaa !4
  %32 = getelementptr inbounds nuw %struct.AACEncContext, ptr %31, i32 0, i32 13
  call void @ff_lpc_end(ptr noundef %32)
  %33 = load ptr, ptr %3, align 8, !tbaa !4
  %34 = getelementptr inbounds nuw %struct.AACEncContext, ptr %33, i32 0, i32 20
  %35 = load ptr, ptr %34, align 16, !tbaa !86
  %36 = icmp ne ptr %35, null
  br i1 %36, label %37, label %41

37:                                               ; preds = %22
  %38 = load ptr, ptr %3, align 8, !tbaa !4
  %39 = getelementptr inbounds nuw %struct.AACEncContext, ptr %38, i32 0, i32 20
  %40 = load ptr, ptr %39, align 16, !tbaa !86
  call void @ff_psy_preprocess_end(ptr noundef %40)
  br label %41

41:                                               ; preds = %37, %22
  %42 = load ptr, ptr %3, align 8, !tbaa !4
  %43 = getelementptr inbounds nuw %struct.AACEncContext, ptr %42, i32 0, i32 35
  %44 = getelementptr inbounds nuw %struct.anon.0, ptr %43, i32 0, i32 0
  call void @av_freep(ptr noundef %44)
  %45 = load ptr, ptr %3, align 8, !tbaa !4
  %46 = getelementptr inbounds nuw %struct.AACEncContext, ptr %45, i32 0, i32 18
  call void @av_freep(ptr noundef %46)
  %47 = load ptr, ptr %3, align 8, !tbaa !4
  %48 = getelementptr inbounds nuw %struct.AACEncContext, ptr %47, i32 0, i32 7
  call void @av_freep(ptr noundef %48)
  %49 = load ptr, ptr %3, align 8, !tbaa !4
  %50 = getelementptr inbounds nuw %struct.AACEncContext, ptr %49, i32 0, i32 29
  call void @ff_af_queue_close(ptr noundef %50)
  call void @llvm.lifetime.end.p0(i64 8, ptr %3) #11
  ret i32 0
}