; Function Attrs: cold nounwind optsize uwtable
define internal noundef i32 @aac_encode_end(ptr noundef %0) #2 {
  %2 = getelementptr inbounds nuw i8, ptr %0, i64 32
  %3 = load ptr, ptr %2, align 8, !tbaa !39
  %4 = getelementptr inbounds nuw i8, ptr %3, i64 38436
  %5 = load i32, ptr %4, align 4, !tbaa !216
  %.not = icmp eq i32 %5, 0
  br i1 %.not, label %12, label %6

6:                                                ; preds = %1
  %7 = getelementptr inbounds nuw i8, ptr %3, i64 38432
  %8 = load float, ptr %7, align 16, !tbaa !215
  %9 = sitofp i32 %5 to float
  %10 = fdiv nsz float %8, %9
  %11 = fpext nsz float %10 to double
  br label %12

12:                                               ; preds = %1, %6
  %13 = phi double [ %11, %6 ], [ 0x7FF8000000000000, %1 ]
  tail call void (ptr, i32, ptr, ...) @av_log(ptr noundef nonnull %0, i32 noundef 32, ptr noundef nonnull @.str.53, double noundef %13) #11
  %14 = getelementptr inbounds nuw i8, ptr %3, i64 64
  tail call void @av_tx_uninit(ptr noundef nonnull %14) #11
  %15 = getelementptr inbounds nuw i8, ptr %3, i64 80
  tail call void @av_tx_uninit(ptr noundef nonnull %15) #11
  %16 = getelementptr inbounds nuw i8, ptr %3, i64 38320
  tail call void @ff_psy_end(ptr noundef nonnull %16) #11
  %17 = getelementptr inbounds nuw i8, ptr %3, i64 544
  tail call void @ff_lpc_end(ptr noundef nonnull %17) #11
  %18 = getelementptr inbounds nuw i8, ptr %3, i64 38400
  %19 = load ptr, ptr %18, align 16, !tbaa !84
  %.not16 = icmp eq ptr %19, null
  br i1 %.not16, label %21, label %20

20:                                               ; preds = %12
  tail call void @ff_psy_preprocess_end(ptr noundef nonnull %19) #11
  br label %21

21:                                               ; preds = %20, %12
  %22 = getelementptr inbounds nuw i8, ptr %3, i64 567272
  tail call void @av_freep(ptr noundef nonnull %22) #11
  %23 = getelementptr inbounds nuw i8, ptr %3, i64 38312
  tail call void @av_freep(ptr noundef nonnull %23) #11
  %24 = getelementptr inbounds nuw i8, ptr %3, i64 96
  tail call void @av_freep(ptr noundef nonnull %24) #11
  %25 = getelementptr inbounds nuw i8, ptr %3, i64 38448
  tail call void @ff_af_queue_close(ptr noundef nonnull %25) #11
  ret i32 0
}